target datalayout = "e-m:e-p270:32:32-p271:32:32-p272:64:64-i64:64-i128:128-f80:128-n8:16:32:64-S128"
target triple = "x86_64-pc-linux-gnu"

%struct._value_string_ext = type { ptr, i32, i32, ptr, ptr }
%struct._address = type { i32, i32, ptr, ptr }
%struct._ws_ip4 = type { i8, i8, i32, i16, i16, i8, i8, i16, %struct._address, %struct._address, i32 }
%struct._proto_node = type { ptr, ptr, ptr, ptr, ptr, ptr, ptr }
%struct.field_info = type { ptr, i32, i32, i32, i32, i32, i32, ptr, ptr, ptr, i32, i32 }

@qs_func_vals = constant [3 x { i32, [4 x i8], ptr }] [{ i32, [4 x i8], ptr } { i32 0, [4 x i8] zeroinitializer, ptr @.str.37 }, { i32, [4 x i8], ptr } { i32 8, [4 x i8] zeroinitializer, ptr @.str.38 }, { i32, [4 x i8], ptr } zeroinitializer], align 16
@qs_rate_vals_ext = global %struct._value_string_ext { ptr @_try_val_to_str_ext_init, i32 0, i32 16, ptr @qs_rate_vals, ptr @.str.39 }, align 8
@hf_ip_opt_qs_func = internal global i32 0, align 4
@hf_ip_opt_qs_rate = internal global i32 0, align 4
@hf_ip_opt_qs_ttl = internal global i32 0, align 4
@hf_ip_opt_qs_ttl_diff = internal global i32 0, align 4
@hf_ip_opt_qs_unused = internal global i32 0, align 4
@hf_ip_opt_qs_nonce = internal global i32 0, align 4
@hf_ip_opt_qs_reserved = internal global i32 0, align 4
@ett_ip_option_qs = internal global i32 0, align 4
@proto_ip_option_qs = internal global i32 0, align 4
@.str.598 = private unnamed_addr constant [5 x i8] c", %s\00", align 1
@.str.612 = private unnamed_addr constant [10 x i8] c": %s (%u)\00", align 1
@.str.613 = private unnamed_addr constant [13 x i8] c"Unknown (%u)\00", align 1
@.str.614 = private unnamed_addr constant [32 x i8] c", %s, QS TTL %u, QS TTL diff %u\00", align 1

; Function Attrs: inlinehint nounwind null_pointer_is_valid sspstrong uwtable
define internal void @proto_item_set_generated(ptr noundef %0) #6 {
  %2 = alloca ptr, align 8
  store ptr %0, ptr %2, align 8
  %3 = load ptr, ptr %2, align 8
  %4 = icmp ne ptr %3, null
  br i1 %4, label %5, label %24

5:                                                ; preds = %1
  br label %6

6:                                                ; preds = %5
  %7 = load ptr, ptr %2, align 8
  %8 = getelementptr inbounds nuw %struct._proto_node, ptr %7, i32 0, i32 5
  %9 = load ptr, ptr %8, align 8
  %10 = icmp ne ptr %9, null
  br i1 %10, label %11, label %22

11:                                               ; preds = %6
  %12 = load ptr, ptr %2, align 8
  %13 = getelementptr inbounds nuw %struct._proto_node, ptr %12, i32 0, i32 5
  %14 = load ptr, ptr %13, align 8
  %15 = getelementptr inbounds nuw %struct.field_info, ptr %14, i32 0, i32 6
  %16 = load i32, ptr %15, align 4
  %17 = or i32 %16, 2
  %18 = load ptr, ptr %2, align 8
  %19 = getelementptr inbounds nuw %struct._proto_node, ptr %18, i32 0, i32 5
  %20 = load ptr, ptr %19, align 8
  %21 = getelementptr inbounds nuw %struct.field_info, ptr %20, i32 0, i32 6
  store i32 %17, ptr %21, align 4
  br label %22

22:                                               ; preds = %11, %6
  br label %23

23:                                               ; preds = %22
  br label %24

24:                                               ; preds = %23, %1
  ret void
}

; Function Attrs: null_pointer_is_valid sspstrong uwtable
define internal i32 @dissect_ipopt_qs(ptr noundef %0, ptr noundef %1, ptr noundef %2, ptr noundef %3) #1 {
  %5 = alloca ptr, align 8
  %6 = alloca ptr, align 8
  %7 = alloca ptr, align 8
  %8 = alloca ptr, align 8
  %9 = alloca ptr, align 8
  %10 = alloca ptr, align 8
  %11 = alloca ptr, align 8
  %12 = alloca ptr, align 8
  %13 = alloca i32, align 4
  %14 = alloca i8, align 1
  %15 = alloca i8, align 1
  %16 = alloca i8, align 1
  %17 = alloca i8, align 1
  store ptr %0, ptr %5, align 8
  store ptr %1, ptr %6, align 8
  store ptr %2, ptr %7, align 8
  store ptr %3, ptr %8, align 8
  call void @llvm.lifetime.start.p0(i64 8, ptr %9) #12
  call void @llvm.lifetime.start.p0(i64 8, ptr %10) #12
  call void @llvm.lifetime.start.p0(i64 8, ptr %11) #12
  call void @llvm.lifetime.start.p0(i64 8, ptr %12) #12
  %18 = load ptr, ptr %8, align 8
  store ptr %18, ptr %12, align 8
  call void @llvm.lifetime.start.p0(i64 4, ptr %13) #12
  store i32 2, ptr %13, align 4
  call void @llvm.lifetime.start.p0(i64 1, ptr %14) #12
  %19 = load ptr, ptr %5, align 8
  %20 = load i32, ptr %13, align 4
  %21 = call zeroext i8 @tvb_get_uint8(ptr noundef %19, i32 noundef %20)
  store i8 %21, ptr %14, align 1
  call void @llvm.lifetime.start.p0(i64 1, ptr %15) #12
  %22 = load i8, ptr %14, align 1
  %23 = zext i8 %22 to i32
  %24 = ashr i32 %23, 4
  %25 = trunc i32 %24 to i8
  store i8 %25, ptr %15, align 1
  call void @llvm.lifetime.start.p0(i64 1, ptr %16) #12
  %26 = load i8, ptr %14, align 1
  %27 = zext i8 %26 to i32
  %28 = and i32 %27, 15
  %29 = trunc i32 %28 to i8
  store i8 %29, ptr %16, align 1
  call void @llvm.lifetime.start.p0(i64 1, ptr %17) #12
  %30 = load ptr, ptr %7, align 8
  %31 = load ptr, ptr %6, align 8
  %32 = load ptr, ptr %5, align 8
  %33 = load i32, ptr @proto_ip_option_qs, align 4
  %34 = load i32, ptr @ett_ip_option_qs, align 4
  %35 = load ptr, ptr %5, align 8
  %36 = call i32 @tvb_reported_length(ptr noundef %35)
  %37 = call ptr @ip_fixed_option_header(ptr noundef %30, ptr noundef %31, ptr noundef %32, i32 noundef %33, i32 noundef %34, ptr noundef %10, i32 noundef 8, i32 noundef %36)
  store ptr %37, ptr %9, align 8
  %38 = load ptr, ptr %10, align 8
  %39 = load i8, ptr %15, align 1
  %40 = zext i8 %39 to i32
  %41 = call ptr @val_to_str(i32 noundef %40, ptr noundef @qs_func_vals, ptr noundef @.str.613)
  %42 = load i8, ptr %15, align 1
  %43 = zext i8 %42 to i32
  call void (ptr, ptr, ...) @proto_item_append_text(ptr noundef %38, ptr noundef @.str.612, ptr noundef %41, i32 noundef %43)
  %44 = load ptr, ptr %9, align 8
  %45 = load i32, ptr @hf_ip_opt_qs_func, align 4
  %46 = load ptr, ptr %5, align 8
  %47 = load i32, ptr %13, align 4
  %48 = call ptr @proto_tree_add_item(ptr noundef %44, i32 noundef %45, ptr noundef %46, i32 noundef %47, i32 noundef 1, i32 noundef 0)
  %49 = load i8, ptr %15, align 1
  %50 = zext i8 %49 to i32
  %51 = icmp eq i32 %50, 0
  br i1 %51, label %52, label %108

52:                                               ; preds = %4
  %53 = load ptr, ptr %9, align 8
  %54 = load i32, ptr @hf_ip_opt_qs_rate, align 4
  %55 = load ptr, ptr %5, align 8
  %56 = load i32, ptr %13, align 4
  %57 = call ptr @proto_tree_add_item(ptr noundef %53, i32 noundef %54, ptr noundef %55, i32 noundef %56, i32 noundef 1, i32 noundef 0)
  %58 = load ptr, ptr %9, align 8
  %59 = load i32, ptr @hf_ip_opt_qs_ttl, align 4
  %60 = load ptr, ptr %5, align 8
  %61 = load i32, ptr %13, align 4
  %62 = add i32 %61, 1
  %63 = call ptr @proto_tree_add_item(ptr noundef %58, i32 noundef %59, ptr noundef %60, i32 noundef %62, i32 noundef 1, i32 noundef 0)
  %64 = load ptr, ptr %12, align 8
  %65 = getelementptr inbounds nuw %struct._ws_ip4, ptr %64, i32 0, i32 5
  %66 = load i8, ptr %65, align 4
  %67 = zext i8 %66 to i32
  %68 = load ptr, ptr %5, align 8
  %69 = load i32, ptr %13, align 4
  %70 = add i32 %69, 1
  %71 = call zeroext i8 @tvb_get_uint8(ptr noundef %68, i32 noundef %70)
  %72 = zext i8 %71 to i32
  %73 = srem i32 %72, 256
  %74 = sub i32 %67, %73
  %75 = trunc i32 %74 to i8
  store i8 %75, ptr %17, align 1
  %76 = load ptr, ptr %9, align 8
  %77 = load i32, ptr @hf_ip_opt_qs_ttl_diff, align 4
  %78 = load ptr, ptr %5, align 8
  %79 = load i32, ptr %13, align 4
  %80 = add i32 %79, 1
  %81 = load i8, ptr %17, align 1
  %82 = zext i8 %81 to i32
  %83 = call ptr @proto_tree_add_uint(ptr noundef %76, i32 noundef %77, ptr noundef %78, i32 noundef %80, i32 noundef 1, i32 noundef %82)
  store ptr %83, ptr %11, align 8
  %84 = load ptr, ptr %11, align 8
  call void @proto_item_set_generated(ptr noundef %84)
  %85 = load ptr, ptr %10, align 8
  %86 = load i8, ptr %16, align 1
  %87 = zext i8 %86 to i32
  %88 = call ptr @val_to_str_ext(i32 noundef %87, ptr noundef @qs_rate_vals_ext, ptr noundef @.str.613)
  %89 = load ptr, ptr %5, align 8
  %90 = load i32, ptr %13, align 4
  %91 = add i32 %90, 1
  %92 = call zeroext i8 @tvb_get_uint8(ptr noundef %89, i32 noundef %91)
  %93 = zext i8 %92 to i32
  %94 = load i8, ptr %17, align 1
  %95 = zext i8 %94 to i32
  call void (ptr, ptr, ...) @proto_item_append_text(ptr noundef %85, ptr noundef @.str.614, ptr noundef %88, i32 noundef %93, i32 noundef %95)
  %96 = load ptr, ptr %9, align 8
  %97 = load i32, ptr @hf_ip_opt_qs_nonce, align 4
  %98 = load ptr, ptr %5, align 8
  %99 = load i32, ptr %13, align 4
  %100 = add i32 %99, 2
  %101 = call ptr @proto_tree_add_item(ptr noundef %96, i32 noundef %97, ptr noundef %98, i32 noundef %100, i32 noundef 4, i32 noundef 0)
  %102 = load ptr, ptr %9, align 8
  %103 = load i32, ptr @hf_ip_opt_qs_reserved, align 4
  %104 = load ptr, ptr %5, align 8
  %105 = load i32, ptr %13, align 4
  %106 = add i32 %105, 2
  %107 = call ptr @proto_tree_add_item(ptr noundef %102, i32 noundef %103, ptr noundef %104, i32 noundef %106, i32 noundef 4, i32 noundef 0)
  br label %141

108:                                              ; preds = %4
  %109 = load i8, ptr %15, align 1
  %110 = zext i8 %109 to i32
  %111 = icmp eq i32 %110, 8
  br i1 %111, label %112, label %140

112:                                              ; preds = %108
  %113 = load ptr, ptr %9, align 8
  %114 = load i32, ptr @hf_ip_opt_qs_rate, align 4
  %115 = load ptr, ptr %5, align 8
  %116 = load i32, ptr %13, align 4
  %117 = call ptr @proto_tree_add_item(ptr noundef %113, i32 noundef %114, ptr noundef %115, i32 noundef %116, i32 noundef 1, i32 noundef 0)
  %118 = load ptr, ptr %10, align 8
  %119 = load i8, ptr %16, align 1
  %120 = zext i8 %119 to i32
  %121 = call ptr @val_to_str_ext(i32 noundef %120, ptr noundef @qs_rate_vals_ext, ptr noundef @.str.613)
  call void (ptr, ptr, ...) @proto_item_append_text(ptr noundef %118, ptr noundef @.str.598, ptr noundef %121)
  %122 = load ptr, ptr %9, align 8
  %123 = load i32, ptr @hf_ip_opt_qs_unused, align 4
  %124 = load ptr, ptr %5, align 8
  %125 = load i32, ptr %13, align 4
  %126 = add i32 %125, 1
  %127 = call ptr @proto_tree_add_item(ptr noundef %122, i32 noundef %123, ptr noundef %124, i32 noundef %126, i32 noundef 1, i32 noundef 0)
  %128 = load ptr, ptr %9, align 8
  %129 = load i32, ptr @hf_ip_opt_qs_nonce, align 4
  %130 = load ptr, ptr %5, align 8
  %131 = load i32, ptr %13, align 4
  %132 = add i32 %131, 2
  %133 = call ptr @proto_tree_add_item(ptr noundef %128, i32 noundef %129, ptr noundef %130, i32 noundef %132, i32 noundef 4, i32 noundef 0)
  %134 = load ptr, ptr %9, align 8
  %135 = load i32, ptr @hf_ip_opt_qs_reserved, align 4
  %136 = load ptr, ptr %5, align 8
  %137 = load i32, ptr %13, align 4
  %138 = add i32 %137, 2
  %139 = call ptr @proto_tree_add_item(ptr noundef %134, i32 noundef %135, ptr noundef %136, i32 noundef %138, i32 noundef 4, i32 noundef 0)
  br label %140

140:                                              ; preds = %112, %108
  br label %141

141:                                              ; preds = %140, %52
  %142 = load ptr, ptr %5, align 8
  %143 = call i32 @tvb_captured_length(ptr noundef %142)
  call void @llvm.lifetime.end.p0(i64 1, ptr %17) #12
  call void @llvm.lifetime.end.p0(i64 1, ptr %16) #12
  call void @llvm.lifetime.end.p0(i64 1, ptr %15) #12
  call void @llvm.lifetime.end.p0(i64 1, ptr %14) #12
  call void @llvm.lifetime.end.p0(i64 4, ptr %13) #12
  call void @llvm.lifetime.end.p0(i64 8, ptr %12) #12
  call void @llvm.lifetime.end.p0(i64 8, ptr %11) #12
  call void @llvm.lifetime.end.p0(i64 8, ptr %10) #12
  call void @llvm.lifetime.end.p0(i64 8, ptr %9) #12
  ret i32 %143
}